	.file	"syscall.c"
	.text
	.align	2
	.global	Create
	.type	Create, %function
Create:
	@ args = 0, pretend = 0, frame = 12
	@ frame_needed = 1, uses_anonymous_args = 0
	mov	ip, sp
	stmfd	sp!, {fp, ip, lr, pc}
	sub	fp, ip, #4
	sub	sp, sp, #12
	str	r0, [fp, #-20]
	str	r1, [fp, #-24]
	stmfd sp!, {r0, r1}
	swi #1
	mov r0, r0
	ldmfd sp!, {r1, r2}
	
	str	r0, [fp, #-16]
	ldr	r3, [fp, #-16]
	mov	r0, r3
	sub	sp, fp, #12
	ldmfd	sp, {fp, sp, pc}
	.size	Create, .-Create
	.align	2
	.global	Send
	.type	Send, %function
Send:
	@ args = 4, pretend = 0, frame = 20
	@ frame_needed = 1, uses_anonymous_args = 0
	mov	ip, sp
	stmfd	sp!, {fp, ip, lr, pc}
	sub	fp, ip, #4
	sub	sp, sp, #20
	str	r0, [fp, #-20]
	str	r1, [fp, #-24]
	str	r2, [fp, #-28]
	str	r3, [fp, #-32]
	ldr r0, [fp, #-20]
	stmfd sp!, {r0}
	ldr r0, [fp, #4]
	stmfd sp!, {r0}
	ldr r0, [fp, #-32]
	stmfd sp!, {r0}
	ldr r0, [fp, #-28]
	stmfd sp!, {r0}
	ldr r0, [fp, #-24]
	stmfd sp!, {r0}
	swi #5
	mov r0, r0
	add sp, sp, #20
	
	str	r0, [fp, #-16]
	ldr	r3, [fp, #-16]
	mov	r0, r3
	sub	sp, fp, #12
	ldmfd	sp, {fp, sp, pc}
	.size	Send, .-Send
	.align	2
	.global	Receive
	.type	Receive, %function
Receive:
	@ args = 0, pretend = 0, frame = 16
	@ frame_needed = 1, uses_anonymous_args = 0
	mov	ip, sp
	stmfd	sp!, {fp, ip, lr, pc}
	sub	fp, ip, #4
	sub	sp, sp, #16
	str	r0, [fp, #-20]
	str	r1, [fp, #-24]
	str	r2, [fp, #-28]
	stmfd sp!, {r0, r1, r2}
	swi #6
	mov r0, r0
	add sp, sp, #12
	
	str	r0, [fp, #-16]
	ldr	r3, [fp, #-16]
	mov	r0, r3
	sub	sp, fp, #12
	ldmfd	sp, {fp, sp, pc}
	.size	Receive, .-Receive
	.align	2
	.global	Reply
	.type	Reply, %function
Reply:
	@ args = 0, pretend = 0, frame = 16
	@ frame_needed = 1, uses_anonymous_args = 0
	mov	ip, sp
	stmfd	sp!, {fp, ip, lr, pc}
	sub	fp, ip, #4
	sub	sp, sp, #16
	str	r0, [fp, #-20]
	str	r1, [fp, #-24]
	str	r2, [fp, #-28]
	stmfd sp!, {r0, r1, r2}
	swi #7
	mov r0, r0
	add sp, sp, #12
	
	str	r0, [fp, #-16]
	ldr	r3, [fp, #-16]
	mov	r0, r3
	sub	sp, fp, #12
	ldmfd	sp, {fp, sp, pc}
	.size	Reply, .-Reply
	.align	2
	.global	MyTid
	.type	MyTid, %function
MyTid:
	@ args = 0, pretend = 0, frame = 4
	@ frame_needed = 1, uses_anonymous_args = 0
	mov	ip, sp
	stmfd	sp!, {fp, ip, lr, pc}
	sub	fp, ip, #4
	sub	sp, sp, #4
	swi #2
	mov r0, r0
	
	str	r0, [fp, #-16]
	ldr	r3, [fp, #-16]
	mov	r0, r3
	ldmfd	sp, {r3, fp, sp, pc}
	.size	MyTid, .-MyTid
	.align	2
	.global	MyParentTid
	.type	MyParentTid, %function
MyParentTid:
	@ args = 0, pretend = 0, frame = 4
	@ frame_needed = 1, uses_anonymous_args = 0
	mov	ip, sp
	stmfd	sp!, {fp, ip, lr, pc}
	sub	fp, ip, #4
	sub	sp, sp, #4
	swi #3
	mov r0, r0
	
	str	r0, [fp, #-16]
	ldr	r3, [fp, #-16]
	mov	r0, r3
	ldmfd	sp, {r3, fp, sp, pc}
	.size	MyParentTid, .-MyParentTid
	.align	2
	.global	Pass
	.type	Pass, %function
Pass:
	@ args = 0, pretend = 0, frame = 0
	@ frame_needed = 1, uses_anonymous_args = 0
	mov	ip, sp
	stmfd	sp!, {fp, ip, lr, pc}
	sub	fp, ip, #4
	swi #4
	
	ldmfd	sp, {fp, sp, pc}
	.size	Pass, .-Pass
	.align	2
	.global	Exit
	.type	Exit, %function
Exit:
	@ args = 0, pretend = 0, frame = 0
	@ frame_needed = 1, uses_anonymous_args = 0
	mov	ip, sp
	stmfd	sp!, {fp, ip, lr, pc}
	sub	fp, ip, #4
	swi #99
	
	ldmfd	sp, {fp, sp, pc}
	.size	Exit, .-Exit
	.ident	"GCC: (GNU) 4.0.2"
