	.file	"test.c"
	.text
	.align	2
	.global	five_args1
	.type	five_args1, %function
five_args1:
	@ args = 4, pretend = 0, frame = 16
	@ frame_needed = 1, uses_anonymous_args = 0
	mov	ip, sp
	stmfd	sp!, {fp, ip, lr, pc}
	sub	fp, ip, #4
	sub	sp, sp, #16
	str	r0, [fp, #-16]
	str	r1, [fp, #-20]
	str	r2, [fp, #-24]
	str	r3, [fp, #-28]
	ldr	r3, [fp, #-16]
	mov	r0, r3
	sub	sp, fp, #12
	ldmfd	sp, {fp, sp, pc}
	.size	five_args1, .-five_args1
	.align	2
	.global	five_args2
	.type	five_args2, %function
five_args2:
	@ args = 4, pretend = 0, frame = 16
	@ frame_needed = 1, uses_anonymous_args = 0
	mov	ip, sp
	stmfd	sp!, {fp, ip, lr, pc}
	sub	fp, ip, #4
	sub	sp, sp, #16
	str	r0, [fp, #-16]
	str	r1, [fp, #-20]
	str	r2, [fp, #-24]
	str	r3, [fp, #-28]
	ldr	r3, [fp, #-20]
	mov	r0, r3
	sub	sp, fp, #12
	ldmfd	sp, {fp, sp, pc}
	.size	five_args2, .-five_args2
	.align	2
	.global	five_args3
	.type	five_args3, %function
five_args3:
	@ args = 4, pretend = 0, frame = 16
	@ frame_needed = 1, uses_anonymous_args = 0
	mov	ip, sp
	stmfd	sp!, {fp, ip, lr, pc}
	sub	fp, ip, #4
	sub	sp, sp, #16
	str	r0, [fp, #-16]
	str	r1, [fp, #-20]
	str	r2, [fp, #-24]
	str	r3, [fp, #-28]
	ldr	r3, [fp, #-24]
	mov	r0, r3
	sub	sp, fp, #12
	ldmfd	sp, {fp, sp, pc}
	.size	five_args3, .-five_args3
	.align	2
	.global	five_args4
	.type	five_args4, %function
five_args4:
	@ args = 4, pretend = 0, frame = 16
	@ frame_needed = 1, uses_anonymous_args = 0
	mov	ip, sp
	stmfd	sp!, {fp, ip, lr, pc}
	sub	fp, ip, #4
	sub	sp, sp, #16
	str	r0, [fp, #-16]
	str	r1, [fp, #-20]
	str	r2, [fp, #-24]
	str	r3, [fp, #-28]
	ldr	r3, [fp, #-28]
	mov	r0, r3
	sub	sp, fp, #12
	ldmfd	sp, {fp, sp, pc}
	.size	five_args4, .-five_args4
	.align	2
	.global	five_args5
	.type	five_args5, %function
five_args5:
	@ args = 4, pretend = 0, frame = 16
	@ frame_needed = 1, uses_anonymous_args = 0
	mov	ip, sp
	stmfd	sp!, {fp, ip, lr, pc}
	sub	fp, ip, #4
	sub	sp, sp, #16
	str	r0, [fp, #-16]
	str	r1, [fp, #-20]
	str	r2, [fp, #-24]
	str	r3, [fp, #-28]
	ldr	r3, [fp, #4]
	mov	r0, r3
	sub	sp, fp, #12
	ldmfd	sp, {fp, sp, pc}
	.size	five_args5, .-five_args5
	.align	2
	.global	main
	.type	main, %function
main:
	@ args = 0, pretend = 0, frame = 0
	@ frame_needed = 1, uses_anonymous_args = 0
	mov	ip, sp
	stmfd	sp!, {fp, ip, lr, pc}
	sub	fp, ip, #4
	mov	r3, #1
	mov	r0, r3
	ldmfd	sp, {fp, sp, pc}
	.size	main, .-main
	.ident	"GCC: (GNU) 4.0.2"
